target datalayout = "e-m:e-p270:32:32-p271:32:32-p272:64:64-i64:64-i128:128-f80:128-n8:16:32:64-S128"
target triple = "x86_64-pc-linux-gnu"

%struct.gcm_funcs_st = type { ptr, ptr, ptr }

@OPENSSL_ia32cap_P = external global [0 x i32], align 4

; Function Attrs: nounwind uwtable
define internal void @gcm_get_funcs(ptr noundef %0) #0 {
  %2 = alloca ptr, align 8
  store ptr %0, ptr %2, align 8, !tbaa !11
  %3 = load ptr, ptr %2, align 8, !tbaa !11
  %4 = getelementptr inbounds nuw %struct.gcm_funcs_st, ptr %3, i32 0, i32 0
  store ptr @gcm_init_4bit, ptr %4, align 8, !tbaa !9
  %5 = load ptr, ptr %2, align 8, !tbaa !11
  %6 = getelementptr inbounds nuw %struct.gcm_funcs_st, ptr %5, i32 0, i32 2
  store ptr null, ptr %6, align 8, !tbaa !13
  %7 = load ptr, ptr %2, align 8, !tbaa !11
  %8 = getelementptr inbounds nuw %struct.gcm_funcs_st, ptr %7, i32 0, i32 1
  store ptr null, ptr %8, align 8, !tbaa !14
  %9 = load i32, ptr getelementptr inbounds ([0 x i32], ptr @OPENSSL_ia32cap_P, i64 0, i64 1), align 4, !tbaa !15
  %10 = and i32 %9, 2
  %11 = icmp ne i32 %10, 0
  br i1 %11, label %12, label %32

12:                                               ; preds = %1
  %13 = load i32, ptr getelementptr inbounds ([0 x i32], ptr @OPENSSL_ia32cap_P, i64 0, i64 1), align 4, !tbaa !15
  %14 = lshr i32 %13, 22
  %15 = and i32 %14, 65
  %16 = icmp eq i32 %15, 65
  br i1 %16, label %17, label %24

17:                                               ; preds = %12
  %18 = load ptr, ptr %2, align 8, !tbaa !11
  %19 = getelementptr inbounds nuw %struct.gcm_funcs_st, ptr %18, i32 0, i32 0
  store ptr @gcm_init_avx, ptr %19, align 8, !tbaa !9
  %20 = load ptr, ptr %2, align 8, !tbaa !11
  %21 = getelementptr inbounds nuw %struct.gcm_funcs_st, ptr %20, i32 0, i32 2
  store ptr @gcm_gmult_avx, ptr %21, align 8, !tbaa !13
  %22 = load ptr, ptr %2, align 8, !tbaa !11
  %23 = getelementptr inbounds nuw %struct.gcm_funcs_st, ptr %22, i32 0, i32 1
  store ptr @gcm_ghash_avx, ptr %23, align 8, !tbaa !14
  br label %31

24:                                               ; preds = %12
  %25 = load ptr, ptr %2, align 8, !tbaa !11
  %26 = getelementptr inbounds nuw %struct.gcm_funcs_st, ptr %25, i32 0, i32 0
  store ptr @gcm_init_clmul, ptr %26, align 8, !tbaa !9
  %27 = load ptr, ptr %2, align 8, !tbaa !11
  %28 = getelementptr inbounds nuw %struct.gcm_funcs_st, ptr %27, i32 0, i32 2
  store ptr @gcm_gmult_clmul, ptr %28, align 8, !tbaa !13
  %29 = load ptr, ptr %2, align 8, !tbaa !11
  %30 = getelementptr inbounds nuw %struct.gcm_funcs_st, ptr %29, i32 0, i32 1
  store ptr @gcm_ghash_clmul, ptr %30, align 8, !tbaa !14
  br label %31

31:                                               ; preds = %24, %17
  br label %37

32:                                               ; preds = %1
  %33 = load ptr, ptr %2, align 8, !tbaa !11
  %34 = getelementptr inbounds nuw %struct.gcm_funcs_st, ptr %33, i32 0, i32 2
  store ptr @gcm_gmult_4bit, ptr %34, align 8, !tbaa !13
  %35 = load ptr, ptr %2, align 8, !tbaa !11
  %36 = getelementptr inbounds nuw %struct.gcm_funcs_st, ptr %35, i32 0, i32 1
  store ptr @gcm_ghash_4bit, ptr %36, align 8, !tbaa !14
  br label %37

37:                                               ; preds = %32, %31
  ret void
}

; Function Attrs: nounwind uwtable
define void @ossl_gcm_ghash_4bit(ptr noundef %0, ptr noundef %1, ptr noundef %2, i64 noundef %3) #0 {
  %5 = alloca ptr, align 8
  %6 = alloca ptr, align 8
  %7 = alloca ptr, align 8
  %8 = alloca i64, align 8
  %9 = alloca %struct.gcm_funcs_st, align 8
  %10 = alloca [2 x i64], align 16
  %11 = alloca i64, align 8
  store ptr %0, ptr %5, align 8, !tbaa !7
  store ptr %1, ptr %6, align 8, !tbaa !3
  store ptr %2, ptr %7, align 8, !tbaa !17
  store i64 %3, ptr %8, align 8, !tbaa !19
  call void @llvm.lifetime.start.p0(i64 24, ptr %9) #5
  call void @llvm.lifetime.start.p0(i64 16, ptr %10) #5
  call void @llvm.lifetime.start.p0(i64 8, ptr %11) #5
  call void @gcm_get_funcs(ptr noundef %9)
  %12 = getelementptr inbounds nuw %struct.gcm_funcs_st, ptr %9, i32 0, i32 1
  %13 = load ptr, ptr %12, align 8, !tbaa !14
  %14 = icmp ne ptr %13, null
  br i1 %14, label %15, label %22

15:                                               ; preds = %4
  %16 = getelementptr inbounds nuw %struct.gcm_funcs_st, ptr %9, i32 0, i32 1
  %17 = load ptr, ptr %16, align 8, !tbaa !14
  %18 = load ptr, ptr %5, align 8, !tbaa !7
  %19 = load ptr, ptr %6, align 8, !tbaa !3
  %20 = load ptr, ptr %7, align 8, !tbaa !17
  %21 = load i64, ptr %8, align 8, !tbaa !19
  call void %17(ptr noundef %18, ptr noundef %19, ptr noundef %20, i64 noundef %21)
  br label %52

22:                                               ; preds = %4
  store i64 0, ptr %11, align 8, !tbaa !19
  br label %23

23:                                               ; preds = %48, %22
  %24 = load i64, ptr %11, align 8, !tbaa !19
  %25 = load i64, ptr %8, align 8, !tbaa !19
  %26 = icmp ult i64 %24, %25
  br i1 %26, label %27, label %51

27:                                               ; preds = %23
  %28 = getelementptr inbounds [2 x i64], ptr %10, i64 0, i64 0
  %29 = load ptr, ptr %7, align 8, !tbaa !17
  %30 = load i64, ptr %11, align 8, !tbaa !19
  %31 = getelementptr inbounds nuw i8, ptr %29, i64 %30
  call void @llvm.memcpy.p0.p0.i64(ptr align 16 %28, ptr align 1 %31, i64 16, i1 false)
  %32 = getelementptr inbounds [2 x i64], ptr %10, i64 0, i64 0
  %33 = load i64, ptr %32, align 16, !tbaa !21
  %34 = load ptr, ptr %5, align 8, !tbaa !7
  %35 = getelementptr inbounds i64, ptr %34, i64 0
  %36 = load i64, ptr %35, align 8, !tbaa !21
  %37 = xor i64 %36, %33
  store i64 %37, ptr %35, align 8, !tbaa !21
  %38 = getelementptr inbounds [2 x i64], ptr %10, i64 0, i64 1
  %39 = load i64, ptr %38, align 8, !tbaa !21
  %40 = load ptr, ptr %5, align 8, !tbaa !7
  %41 = getelementptr inbounds i64, ptr %40, i64 1
  %42 = load i64, ptr %41, align 8, !tbaa !21
  %43 = xor i64 %42, %39
  store i64 %43, ptr %41, align 8, !tbaa !21
  %44 = getelementptr inbounds nuw %struct.gcm_funcs_st, ptr %9, i32 0, i32 2
  %45 = load ptr, ptr %44, align 8, !tbaa !13
  %46 = load ptr, ptr %5, align 8, !tbaa !7
  %47 = load ptr, ptr %6, align 8, !tbaa !3
  call void %45(ptr noundef %46, ptr noundef %47)
  br label %48

48:                                               ; preds = %27
  %49 = load i64, ptr %11, align 8, !tbaa !19
  %50 = add i64 %49, 16
  store i64 %50, ptr %11, align 8, !tbaa !19
  br label %23, !llvm.loop !23

51:                                               ; preds = %23
  br label %52

52:                                               ; preds = %51, %15
  call void @llvm.lifetime.end.p0(i64 8, ptr %11) #5
  call void @llvm.lifetime.end.p0(i64 16, ptr %10) #5
  call void @llvm.lifetime.end.p0(i64 24, ptr %9) #5
  ret void
}