; Function Attrs: nounwind uwtable
define void @ossl_gcm_ghash_4bit(ptr noundef %0, ptr noundef %1, ptr noundef %2, i64 noundef %3) local_unnamed_addr #0 {
  %5 = load i32, ptr getelementptr inbounds nuw (i8, ptr @OPENSSL_ia32cap_P, i64 4), align 4, !tbaa !3
  %6 = and i32 %5, 2
  %.not.i = icmp eq i32 %6, 0
  %7 = and i32 %5, 272629760
  %8 = icmp eq i32 %7, 272629760
  %gcm_ghash_avx.gcm_ghash_clmul.i = select i1 %8, ptr @gcm_ghash_avx, ptr @gcm_ghash_clmul
  %gcm_ghash_avx.sink.i = select i1 %.not.i, ptr @gcm_ghash_4bit, ptr %gcm_ghash_avx.gcm_ghash_clmul.i
  tail call void %gcm_ghash_avx.sink.i(ptr noundef %0, ptr noundef %1, ptr noundef %2, i64 noundef %3) #6
  ret void
}